target datalayout = "e-m:e-p270:32:32-p271:32:32-p272:64:64-i64:64-i128:128-f80:128-n8:16:32:64-S128"
target triple = "x86_64-pc-linux-gnu"

%struct._address = type { i32, i32, ptr, ptr }
%struct.conversation = type { ptr, ptr, ptr, i32, i32, i32, ptr, ptr, i32, ptr }
%struct.lbtru_transport_t = type { %struct._address, i16, i32, i64, i32, ptr }

@lbtru_null_address = internal constant %struct._address zeroinitializer, align 8
@proto_lbtru = internal global i32 0, align 4

; Function Attrs: inlinehint nounwind null_pointer_is_valid sspstrong uwtable
define internal void @clear_address(ptr noundef %0) #5 {
  %2 = alloca ptr, align 8
  store ptr %0, ptr %2, align 8
  %3 = load ptr, ptr %2, align 8
  %4 = getelementptr inbounds nuw %struct._address, ptr %3, i32 0, i32 0
  store i32 0, ptr %4, align 8
  %5 = load ptr, ptr %2, align 8
  %6 = getelementptr inbounds nuw %struct._address, ptr %5, i32 0, i32 1
  store i32 0, ptr %6, align 4
  %7 = load ptr, ptr %2, align 8
  %8 = getelementptr inbounds nuw %struct._address, ptr %7, i32 0, i32 2
  store ptr null, ptr %8, align 8
  %9 = load ptr, ptr %2, align 8
  %10 = getelementptr inbounds nuw %struct._address, ptr %9, i32 0, i32 3
  store ptr null, ptr %10, align 8
  ret void
}

; Function Attrs: inlinehint null_pointer_is_valid sspstrong uwtable
define internal void @alloc_address_wmem(ptr noundef %0, ptr noundef %1, i32 noundef %2, i32 noundef %3, ptr noundef %4) #4 {
  %6 = alloca ptr, align 8
  %7 = alloca ptr, align 8
  %8 = alloca i32, align 4
  %9 = alloca i32, align 4
  %10 = alloca ptr, align 8
  store ptr %0, ptr %6, align 8
  store ptr %1, ptr %7, align 8
  store i32 %2, ptr %8, align 4
  store i32 %3, ptr %9, align 4
  store ptr %4, ptr %10, align 8
  br label %11

11:                                               ; preds = %5
  br label %12

12:                                               ; preds = %11
  %13 = load ptr, ptr %7, align 8
  call void @clear_address(ptr noundef %13)
  %14 = load i32, ptr %8, align 4
  %15 = load ptr, ptr %7, align 8
  %16 = getelementptr inbounds nuw %struct._address, ptr %15, i32 0, i32 0
  store i32 %14, ptr %16, align 8
  %17 = load i32, ptr %9, align 4
  %18 = icmp eq i32 %17, 0
  br i1 %18, label %19, label %22

19:                                               ; preds = %12
  br label %20

20:                                               ; preds = %19
  br label %21

21:                                               ; preds = %20
  br label %39

22:                                               ; preds = %12
  br label %23

23:                                               ; preds = %22
  br label %24

24:                                               ; preds = %23
  br label %25

25:                                               ; preds = %24
  br label %26

26:                                               ; preds = %25
  %27 = load ptr, ptr %6, align 8
  %28 = load ptr, ptr %10, align 8
  %29 = load i32, ptr %9, align 4
  %30 = sext i32 %29 to i64
  %31 = call ptr @wmem_memdup(ptr noundef %27, ptr noundef %28, i64 noundef %30) #11
  %32 = load ptr, ptr %7, align 8
  %33 = getelementptr inbounds nuw %struct._address, ptr %32, i32 0, i32 3
  store ptr %31, ptr %33, align 8
  %34 = load ptr, ptr %7, align 8
  %35 = getelementptr inbounds nuw %struct._address, ptr %34, i32 0, i32 2
  store ptr %31, ptr %35, align 8
  %36 = load i32, ptr %9, align 4
  %37 = load ptr, ptr %7, align 8
  %38 = getelementptr inbounds nuw %struct._address, ptr %37, i32 0, i32 1
  store i32 %36, ptr %38, align 4
  br label %39

39:                                               ; preds = %26, %21
  ret void
}

; Function Attrs: inlinehint null_pointer_is_valid sspstrong uwtable
define internal void @copy_address_wmem(ptr noundef %0, ptr noundef %1, ptr noundef %2) #4 {
  %4 = alloca ptr, align 8
  %5 = alloca ptr, align 8
  %6 = alloca ptr, align 8
  store ptr %0, ptr %4, align 8
  store ptr %1, ptr %5, align 8
  store ptr %2, ptr %6, align 8
  %7 = load ptr, ptr %4, align 8
  %8 = load ptr, ptr %5, align 8
  %9 = load ptr, ptr %6, align 8
  %10 = getelementptr inbounds nuw %struct._address, ptr %9, i32 0, i32 0
  %11 = load i32, ptr %10, align 8
  %12 = load ptr, ptr %6, align 8
  %13 = getelementptr inbounds nuw %struct._address, ptr %12, i32 0, i32 1
  %14 = load i32, ptr %13, align 4
  %15 = load ptr, ptr %6, align 8
  %16 = getelementptr inbounds nuw %struct._address, ptr %15, i32 0, i32 2
  %17 = load ptr, ptr %16, align 8
  call void @alloc_address_wmem(ptr noundef %7, ptr noundef %8, i32 noundef %11, i32 noundef %14, ptr noundef %17)
  ret void
}

; Function Attrs: null_pointer_is_valid sspstrong uwtable
define hidden ptr @lbtru_transport_add(ptr noundef %0, i16 noundef zeroext %1, i32 noundef %2, i32 noundef %3) #0 {
  %5 = alloca ptr, align 8
  %6 = alloca ptr, align 8
  %7 = alloca i16, align 2
  %8 = alloca i32, align 4
  %9 = alloca i32, align 4
  %10 = alloca ptr, align 8
  %11 = alloca ptr, align 8
  %12 = alloca ptr, align 8
  %13 = alloca i32, align 4
  store ptr %0, ptr %6, align 8
  store i16 %1, ptr %7, align 2
  store i32 %2, ptr %8, align 4
  store i32 %3, ptr %9, align 4
  call void @llvm.lifetime.start.p0(i64 8, ptr %10) #9
  store ptr null, ptr %10, align 8
  call void @llvm.lifetime.start.p0(i64 8, ptr %11) #9
  store ptr null, ptr %11, align 8
  call void @llvm.lifetime.start.p0(i64 8, ptr %12) #9
  store ptr null, ptr %12, align 8
  %14 = load i32, ptr %9, align 4
  %15 = load ptr, ptr %6, align 8
  %16 = load i16, ptr %7, align 2
  %17 = zext i16 %16 to i32
  %18 = call ptr @find_conversation(i32 noundef %14, ptr noundef %15, ptr noundef @lbtru_null_address, i32 noundef 3, i32 noundef %17, i32 noundef 0, i32 noundef 0)
  store ptr %18, ptr %12, align 8
  %19 = load ptr, ptr %12, align 8
  %20 = icmp eq ptr %19, null
  br i1 %20, label %21, label %27

21:                                               ; preds = %4
  %22 = load i32, ptr %9, align 4
  %23 = load ptr, ptr %6, align 8
  %24 = load i16, ptr %7, align 2
  %25 = zext i16 %24 to i32
  %26 = call ptr @conversation_new(i32 noundef %22, ptr noundef %23, ptr noundef @lbtru_null_address, i32 noundef 3, i32 noundef %25, i32 noundef 0, i32 noundef 0)
  store ptr %26, ptr %12, align 8
  br label %27

27:                                               ; preds = %21, %4
  %28 = load i32, ptr %9, align 4
  %29 = icmp ne i32 %28, 0
  br i1 %29, label %30, label %50

30:                                               ; preds = %27
  %31 = load ptr, ptr %12, align 8
  %32 = getelementptr inbounds nuw %struct.conversation, ptr %31, i32 0, i32 4
  %33 = load i32, ptr %32, align 4
  %34 = icmp eq i32 %33, 0
  br i1 %34, label %35, label %39

35:                                               ; preds = %30
  %36 = load i32, ptr %9, align 4
  %37 = load ptr, ptr %12, align 8
  %38 = getelementptr inbounds nuw %struct.conversation, ptr %37, i32 0, i32 4
  store i32 %36, ptr %38, align 4
  br label %39

39:                                               ; preds = %35, %30
  %40 = load i32, ptr %9, align 4
  %41 = load ptr, ptr %12, align 8
  %42 = getelementptr inbounds nuw %struct.conversation, ptr %41, i32 0, i32 5
  %43 = load i32, ptr %42, align 8
  %44 = icmp ugt i32 %40, %43
  br i1 %44, label %45, label %49

45:                                               ; preds = %39
  %46 = load i32, ptr %9, align 4
  %47 = load ptr, ptr %12, align 8
  %48 = getelementptr inbounds nuw %struct.conversation, ptr %47, i32 0, i32 5
  store i32 %46, ptr %48, align 8
  br label %49

49:                                               ; preds = %45, %39
  br label %50

50:                                               ; preds = %49, %27
  %51 = load ptr, ptr %12, align 8
  %52 = load i32, ptr @proto_lbtru, align 4
  %53 = call ptr @conversation_get_proto_data(ptr noundef %51, i32 noundef %52)
  store ptr %53, ptr %11, align 8
  %54 = load ptr, ptr %11, align 8
  %55 = icmp eq ptr %54, null
  br i1 %55, label %56, label %62

56:                                               ; preds = %50
  %57 = call ptr @wmem_file_scope()
  %58 = call noalias ptr @wmem_tree_new(ptr noundef %57)
  store ptr %58, ptr %11, align 8
  %59 = load ptr, ptr %12, align 8
  %60 = load i32, ptr @proto_lbtru, align 4
  %61 = load ptr, ptr %11, align 8
  call void @conversation_add_proto_data(ptr noundef %59, i32 noundef %60, ptr noundef %61)
  br label %62

62:                                               ; preds = %56, %50
  %63 = load ptr, ptr %11, align 8
  %64 = load i32, ptr %8, align 4
  %65 = call ptr @wmem_tree_lookup32(ptr noundef %63, i32 noundef %64)
  store ptr %65, ptr %10, align 8
  %66 = load ptr, ptr %10, align 8
  %67 = icmp ne ptr %66, null
  br i1 %67, label %68, label %70

68:                                               ; preds = %62
  %69 = load ptr, ptr %10, align 8
  store ptr %69, ptr %5, align 8
  store i32 1, ptr %13, align 4
  br label %96

70:                                               ; preds = %62
  %71 = call ptr @wmem_file_scope()
  %72 = call noalias ptr @wmem_alloc(ptr noundef %71, i64 noundef 56) #10
  store ptr %72, ptr %10, align 8
  %73 = call ptr @wmem_file_scope()
  %74 = load ptr, ptr %10, align 8
  %75 = getelementptr inbounds nuw %struct.lbtru_transport_t, ptr %74, i32 0, i32 0
  %76 = load ptr, ptr %6, align 8
  call void @copy_address_wmem(ptr noundef %73, ptr noundef %75, ptr noundef %76)
  %77 = load i16, ptr %7, align 2
  %78 = load ptr, ptr %10, align 8
  %79 = getelementptr inbounds nuw %struct.lbtru_transport_t, ptr %78, i32 0, i32 1
  store i16 %77, ptr %79, align 8
  %80 = load i32, ptr %8, align 4
  %81 = load ptr, ptr %10, align 8
  %82 = getelementptr inbounds nuw %struct.lbtru_transport_t, ptr %81, i32 0, i32 2
  store i32 %80, ptr %82, align 4
  %83 = call i64 @lbm_channel_assign(i8 noundef zeroext 1)
  %84 = load ptr, ptr %10, align 8
  %85 = getelementptr inbounds nuw %struct.lbtru_transport_t, ptr %84, i32 0, i32 3
  store i64 %83, ptr %85, align 8
  %86 = load ptr, ptr %10, align 8
  %87 = getelementptr inbounds nuw %struct.lbtru_transport_t, ptr %86, i32 0, i32 4
  store i32 1, ptr %87, align 8
  %88 = call ptr @wmem_file_scope()
  %89 = call noalias ptr @wmem_list_new(ptr noundef %88)
  %90 = load ptr, ptr %10, align 8
  %91 = getelementptr inbounds nuw %struct.lbtru_transport_t, ptr %90, i32 0, i32 5
  store ptr %89, ptr %91, align 8
  %92 = load ptr, ptr %11, align 8
  %93 = load i32, ptr %8, align 4
  %94 = load ptr, ptr %10, align 8
  call void @wmem_tree_insert32(ptr noundef %92, i32 noundef %93, ptr noundef %94)
  %95 = load ptr, ptr %10, align 8
  store ptr %95, ptr %5, align 8
  store i32 1, ptr %13, align 4
  br label %96

96:                                               ; preds = %70, %68
  call void @llvm.lifetime.end.p0(i64 8, ptr %12) #9
  call void @llvm.lifetime.end.p0(i64 8, ptr %11) #9
  call void @llvm.lifetime.end.p0(i64 8, ptr %10) #9
  %97 = load ptr, ptr %5, align 8
  ret ptr %97
}