; Function Attrs: null_pointer_is_valid sspstrong uwtable
define hidden ptr @lbtru_transport_add(ptr noundef %0, i16 noundef zeroext %1, i32 noundef %2, i32 noundef %3) local_unnamed_addr #0 {
  %5 = zext i16 %1 to i32
  %6 = tail call ptr @find_conversation(i32 noundef %3, ptr noundef %0, ptr noundef nonnull @lbtru_null_address, i32 noundef 3, i32 noundef %5, i32 noundef 0, i32 noundef 0)
  %7 = icmp eq ptr %6, null
  br i1 %7, label %8, label %10

8:                                                ; preds = %4
  %9 = tail call ptr @conversation_new(i32 noundef %3, ptr noundef %0, ptr noundef nonnull @lbtru_null_address, i32 noundef 3, i32 noundef %5, i32 noundef 0, i32 noundef 0)
  br label %10

10:                                               ; preds = %8, %4
  %.0 = phi ptr [ %9, %8 ], [ %6, %4 ]
  %.not = icmp eq i32 %3, 0
  br i1 %.not, label %21, label %11

11:                                               ; preds = %10
  %12 = getelementptr inbounds nuw i8, ptr %.0, i64 28
  %13 = load i32, ptr %12, align 4
  %14 = icmp eq i32 %13, 0
  br i1 %14, label %15, label %16

15:                                               ; preds = %11
  store i32 %3, ptr %12, align 4
  br label %16

16:                                               ; preds = %15, %11
  %17 = getelementptr inbounds nuw i8, ptr %.0, i64 32
  %18 = load i32, ptr %17, align 8
  %19 = icmp ugt i32 %3, %18
  br i1 %19, label %20, label %21

20:                                               ; preds = %16
  store i32 %3, ptr %17, align 8
  br label %21

21:                                               ; preds = %16, %20, %10
  %22 = load i32, ptr @proto_lbtru, align 4
  %23 = tail call ptr @conversation_get_proto_data(ptr noundef %.0, i32 noundef %22)
  %24 = icmp eq ptr %23, null
  br i1 %24, label %25, label %29

25:                                               ; preds = %21
  %26 = tail call ptr @wmem_file_scope()
  %27 = tail call noalias ptr @wmem_tree_new(ptr noundef %26)
  %28 = load i32, ptr @proto_lbtru, align 4
  tail call void @conversation_add_proto_data(ptr noundef %.0, i32 noundef %28, ptr noundef %27)
  br label %29

29:                                               ; preds = %25, %21
  %.036 = phi ptr [ %27, %25 ], [ %23, %21 ]
  %30 = tail call ptr @wmem_tree_lookup32(ptr noundef %.036, i32 noundef %2)
  %.not42 = icmp eq ptr %30, null
  br i1 %.not42, label %31, label %55

31:                                               ; preds = %29
  %32 = tail call ptr @wmem_file_scope()
  %33 = tail call noalias dereferenceable_or_null(56) ptr @wmem_alloc(ptr noundef %32, i64 noundef 56) #7
  %34 = tail call ptr @wmem_file_scope()
  %35 = load i32, ptr %0, align 8
  %36 = getelementptr inbounds nuw i8, ptr %0, i64 4
  %37 = load i32, ptr %36, align 4
  %38 = getelementptr inbounds nuw i8, ptr %0, i64 8
  %39 = load ptr, ptr %38, align 8
  tail call void @llvm.memset.p0.i64(ptr noundef align 8 dereferenceable(24) %33, i8 0, i64 24, i1 false)
  store i32 %35, ptr %33, align 8
  %40 = icmp eq i32 %37, 0
  br i1 %40, label %copy_address_wmem.exit, label %41

41:                                               ; preds = %31
  %42 = sext i32 %37 to i64
  %43 = tail call ptr @wmem_memdup(ptr noundef %34, ptr noundef %39, i64 noundef %42) #8
  %44 = getelementptr inbounds nuw i8, ptr %33, i64 16
  store ptr %43, ptr %44, align 8
  %45 = getelementptr inbounds nuw i8, ptr %33, i64 8
  store ptr %43, ptr %45, align 8
  %46 = getelementptr inbounds nuw i8, ptr %33, i64 4
  store i32 %37, ptr %46, align 4
  br label %copy_address_wmem.exit

copy_address_wmem.exit:                           ; preds = %31, %41
  %47 = getelementptr inbounds nuw i8, ptr %33, i64 24
  store i16 %1, ptr %47, align 8
  %48 = getelementptr inbounds nuw i8, ptr %33, i64 28
  store i32 %2, ptr %48, align 4
  %49 = tail call i64 @lbm_channel_assign(i8 noundef zeroext 1)
  %50 = getelementptr inbounds nuw i8, ptr %33, i64 32
  store i64 %49, ptr %50, align 8
  %51 = getelementptr inbounds nuw i8, ptr %33, i64 40
  store i32 1, ptr %51, align 8
  %52 = tail call ptr @wmem_file_scope()
  %53 = tail call noalias ptr @wmem_list_new(ptr noundef %52)
  %54 = getelementptr inbounds nuw i8, ptr %33, i64 48
  store ptr %53, ptr %54, align 8
  tail call void @wmem_tree_insert32(ptr noundef %.036, i32 noundef %2, ptr noundef %33)
  br label %55

55:                                               ; preds = %29, %copy_address_wmem.exit
  %.037 = phi ptr [ %33, %copy_address_wmem.exit ], [ %30, %29 ]
  ret ptr %.037
}